; Function Attrs: mustprogress nofree norecurse nosync nounwind willreturn memory(write, argmem: readwrite, inaccessiblemem: none) uwtable
define ptr @h5tools_str_trunc(ptr noundef captures(none) %0, i64 noundef %1) local_unnamed_addr #12 {
  %3 = getelementptr inbounds nuw i8, ptr %0, i64 8
  %4 = load i64, ptr %3, align 8, !tbaa !11
  %5 = icmp ult i64 %1, %4
  br i1 %5, label %6, label %9

6:                                                ; preds = %2
  store i64 %1, ptr %3, align 8, !tbaa !11
  %7 = load ptr, ptr %0, align 8, !tbaa !10
  %8 = getelementptr inbounds nuw i8, ptr %7, i64 %1
  store i8 0, ptr %8, align 1, !tbaa !12
  br label %9

9:                                                ; preds = %6, %2
  %10 = load ptr, ptr %0, align 8, !tbaa !10
  ret ptr %10
}